target datalayout = "e-m:e-p270:32:32-p271:32:32-p272:64:64-i64:64-i128:128-f80:128-n8:16:32:64-S128"
target triple = "x86_64-pc-linux-gnu"

%struct.ResourceOwnerDesc = type { ptr, i32, i32, ptr, ptr }
%struct.vfd = type { i32, i16, ptr, i32, i32, i32, i64, ptr, i32, i32 }

@.str.1 = private unnamed_addr constant [5 x i8] c"fd.c\00", align 1
@VfdCache = internal global ptr null, align 8
@pg_file_create_mode = external global i32, align 4
@CurrentResourceOwner = external global ptr, align 8
@.str.21 = private unnamed_addr constant [39 x i8] c"could not open temporary file \22%s\22: %m\00", align 1
@__func__.PathNameOpenTemporaryFile = private unnamed_addr constant [26 x i8] c"PathNameOpenTemporaryFile\00", align 1
@have_xact_temporary_files = internal global i8 0, align 1
@file_resowner_desc = internal constant %struct.ResourceOwnerDesc { ptr @.str.52, i32 3, i32 600, ptr @ResOwnerReleaseFile, ptr @ResOwnerPrintFile }, align 8

; Function Attrs: inlinehint nounwind uwtable
define internal i64 @Int32GetDatum(i32 noundef %0) #9 {
  %2 = alloca i32, align 4
  store i32 %0, ptr %2, align 4
  %3 = load i32, ptr %2, align 4
  %4 = sext i32 %3 to i64
  ret i64 %4
}

; Function Attrs: inlinehint nounwind uwtable
define internal void @ResourceOwnerRememberFile(ptr noundef %0, i32 noundef %1) #9 {
  %3 = alloca ptr, align 8
  %4 = alloca i32, align 4
  store ptr %0, ptr %3, align 8
  store i32 %1, ptr %4, align 4
  %5 = load ptr, ptr %3, align 8
  %6 = load i32, ptr %4, align 4
  %7 = call i64 @Int32GetDatum(i32 noundef %6)
  call void @ResourceOwnerRemember(ptr noundef %5, i64 noundef %7, ptr noundef @file_resowner_desc)
  ret void
}

; Function Attrs: nounwind uwtable
define internal void @RegisterTemporaryFile(i32 noundef %0) #0 {
  %2 = alloca i32, align 4
  store i32 %0, ptr %2, align 4
  %3 = load ptr, ptr @CurrentResourceOwner, align 8
  %4 = load i32, ptr %2, align 4
  call void @ResourceOwnerRememberFile(ptr noundef %3, i32 noundef %4)
  %5 = load ptr, ptr @CurrentResourceOwner, align 8
  %6 = load ptr, ptr @VfdCache, align 8
  %7 = load i32, ptr %2, align 4
  %8 = sext i32 %7 to i64
  %9 = getelementptr inbounds %struct.vfd, ptr %6, i64 %8
  %10 = getelementptr inbounds nuw %struct.vfd, ptr %9, i32 0, i32 2
  store ptr %5, ptr %10, align 8
  %11 = load ptr, ptr @VfdCache, align 8
  %12 = load i32, ptr %2, align 4
  %13 = sext i32 %12 to i64
  %14 = getelementptr inbounds %struct.vfd, ptr %11, i64 %13
  %15 = getelementptr inbounds nuw %struct.vfd, ptr %14, i32 0, i32 1
  %16 = load i16, ptr %15, align 4
  %17 = zext i16 %16 to i32
  %18 = or i32 %17, 2
  %19 = trunc i32 %18 to i16
  store i16 %19, ptr %15, align 4
  store i8 1, ptr @have_xact_temporary_files, align 1
  ret void
}

; Function Attrs: nounwind uwtable
define dso_local i32 @PathNameOpenFile(ptr noundef %0, i32 noundef %1) #0 {
  %3 = alloca ptr, align 8
  %4 = alloca i32, align 4
  store ptr %0, ptr %3, align 8
  store i32 %1, ptr %4, align 4
  %5 = load ptr, ptr %3, align 8
  %6 = load i32, ptr %4, align 4
  %7 = load i32, ptr @pg_file_create_mode, align 4
  %8 = call i32 @PathNameOpenFilePerm(ptr noundef %5, i32 noundef %6, i32 noundef %7)
  ret i32 %8
}

; Function Attrs: nounwind uwtable
define dso_local i32 @PathNameOpenTemporaryFile(ptr noundef %0, i32 noundef %1) #0 {
  %3 = alloca ptr, align 8
  %4 = alloca i32, align 4
  %5 = alloca i32, align 4
  store ptr %0, ptr %3, align 8
  store i32 %1, ptr %4, align 4
  call void @llvm.lifetime.start.p0(i64 4, ptr %5) #14
  %6 = load ptr, ptr @CurrentResourceOwner, align 8
  call void @ResourceOwnerEnlarge(ptr noundef %6)
  %7 = load ptr, ptr %3, align 8
  %8 = load i32, ptr %4, align 4
  %9 = or i32 %8, 0
  %10 = call i32 @PathNameOpenFile(ptr noundef %7, i32 noundef %9)
  store i32 %10, ptr %5, align 4
  %11 = load i32, ptr %5, align 4
  %12 = icmp sle i32 %11, 0
  br i1 %12, label %13, label %30

13:                                               ; preds = %2
  %14 = call ptr @__errno_location() #15
  %15 = load i32, ptr %14, align 4
  %16 = icmp ne i32 %15, 2
  br i1 %16, label %17, label %30

17:                                               ; preds = %13
  br label %18

18:                                               ; preds = %17
  br i1 true, label %19, label %21

19:                                               ; preds = %18
  %20 = call zeroext i1 @errstart_cold(i32 noundef 21, ptr noundef null) #16
  br i1 %20, label %23, label %27

21:                                               ; preds = %18
  %22 = call zeroext i1 @errstart(i32 noundef 21, ptr noundef null)
  br i1 %22, label %23, label %27

23:                                               ; preds = %21, %19
  %24 = call i32 @errcode_for_file_access()
  %25 = load ptr, ptr %3, align 8
  %26 = call i32 (ptr, ...) @errmsg(ptr noundef @.str.21, ptr noundef %25)
  call void @errfinish(ptr noundef @.str.1, i32 noundef 1915, ptr noundef @__func__.PathNameOpenTemporaryFile)
  br label %27

27:                                               ; preds = %23, %21, %19
  unreachable

28:                                               ; No predecessors!
  br label %29

29:                                               ; preds = %28
  br label %30

30:                                               ; preds = %29, %13, %2
  %31 = load i32, ptr %5, align 4
  %32 = icmp sgt i32 %31, 0
  br i1 %32, label %33, label %35

33:                                               ; preds = %30
  %34 = load i32, ptr %5, align 4
  call void @RegisterTemporaryFile(i32 noundef %34)
  br label %35

35:                                               ; preds = %33, %30
  %36 = load i32, ptr %5, align 4
  call void @llvm.lifetime.end.p0(i64 4, ptr %5) #14
  ret i32 %36
}