; Function Attrs: nounwind uwtable
define dso_local i32 @PathNameOpenTemporaryFile(ptr noundef %0, i32 noundef %1) local_unnamed_addr #0 {
  %3 = load ptr, ptr @CurrentResourceOwner, align 8
  tail call void @ResourceOwnerEnlarge(ptr noundef %3) #25
  %4 = load i32, ptr @pg_file_create_mode, align 4
  %5 = tail call i32 @PathNameOpenFilePerm(ptr noundef readonly %0, i32 noundef %1, i32 noundef %4)
  %6 = icmp slt i32 %5, 1
  br i1 %6, label %7, label %14

7:                                                ; preds = %2
  %8 = tail call ptr @__errno_location() #26
  %9 = load i32, ptr %8, align 4
  %.not = icmp eq i32 %9, 2
  br i1 %.not, label %23, label %10

10:                                               ; preds = %7
  %11 = tail call zeroext i1 @errstart_cold(i32 noundef 21, ptr noundef null) #27
  tail call void @llvm.assume(i1 %11)
  %12 = tail call i32 @errcode_for_file_access() #25
  %13 = tail call i32 (ptr, ...) @errmsg(ptr noundef nonnull @.str.21, ptr noundef %0) #25
  tail call void @errfinish(ptr noundef nonnull @.str.1, i32 noundef 1915, ptr noundef nonnull @__func__.PathNameOpenTemporaryFile) #25
  unreachable

14:                                               ; preds = %2
  %15 = load ptr, ptr @CurrentResourceOwner, align 8
  %16 = zext nneg i32 %5 to i64
  tail call void @ResourceOwnerRemember(ptr noundef %15, i64 noundef %16, ptr noundef nonnull @file_resowner_desc) #25
  %17 = load ptr, ptr @CurrentResourceOwner, align 8
  %18 = load ptr, ptr @VfdCache, align 8
  %19 = getelementptr inbounds nuw %struct.vfd, ptr %18, i64 %16, i32 2
  store ptr %17, ptr %19, align 8
  %20 = getelementptr inbounds nuw %struct.vfd, ptr %18, i64 %16, i32 1
  %21 = load i16, ptr %20, align 4
  %22 = or i16 %21, 2
  store i16 %22, ptr %20, align 4
  store i1 true, ptr @have_xact_temporary_files, align 1
  br label %23

23:                                               ; preds = %7, %14
  ret i32 %5
}